; Function Attrs: nounwind uwtable
define i32 @Tim_ManPoNum(ptr noundef %0) local_unnamed_addr #0 {
  %2 = load ptr, ptr %0, align 8
  %.not.i = icmp eq ptr %2, null
  br i1 %.not.i, label %Tim_ManBoxNum.exit.thread, label %Tim_ManBoxNum.exit

Tim_ManBoxNum.exit:                               ; preds = %1
  %3 = getelementptr i8, ptr %2, i64 4
  %.val.i = load i32, ptr %3, align 4
  %4 = icmp eq i32 %.val.i, 0
  br i1 %4, label %Tim_ManBoxNum.exit.thread, label %Tim_ManBoxNum.exit10

Tim_ManBoxNum.exit.thread:                        ; preds = %1, %Tim_ManBoxNum.exit
  %5 = getelementptr inbounds nuw i8, ptr %0, i64 36
  %6 = load i32, ptr %5, align 4
  br label %14

Tim_ManBoxNum.exit10:                             ; preds = %Tim_ManBoxNum.exit
  %7 = add nsw i32 %.val.i, -1
  %8 = getelementptr inbounds nuw i8, ptr %0, i64 36
  %9 = load i32, ptr %8, align 4
  %10 = tail call i32 @Tim_ManBoxInputFirst(ptr noundef nonnull %0, i32 noundef %7) #18
  %11 = tail call i32 @Tim_ManBoxInputNum(ptr noundef nonnull %0, i32 noundef %7) #18
  %12 = add i32 %10, %11
  %13 = sub i32 %9, %12
  br label %14

14:                                               ; preds = %Tim_ManBoxNum.exit10, %Tim_ManBoxNum.exit.thread
  %.0 = phi i32 [ %6, %Tim_ManBoxNum.exit.thread ], [ %13, %Tim_ManBoxNum.exit10 ]
  ret i32 %.0
}